target datalayout = "e-m:e-p270:32:32-p271:32:32-p272:64:64-i64:64-i128:128-f80:128-n8:16:32:64-S128"
target triple = "x86_64-pc-linux-gnu"

; Function Attrs: nounwind uwtable
define dso_local double @art_blackbody_dd_value(double noundef %0, double noundef %1) #0 {
  %3 = alloca double, align 8
  %4 = alloca double, align 8
  %5 = alloca double, align 8
  %6 = alloca double, align 8
  %7 = alloca double, align 8
  store double %0, ptr %3, align 8, !tbaa !9
  store double %1, ptr %4, align 8, !tbaa !9
  call void @llvm.lifetime.start.p0(i64 8, ptr %5) #5
  store double 3.741770e-16, ptr %5, align 8, !tbaa !9
  call void @llvm.lifetime.start.p0(i64 8, ptr %6) #5
  store double 1.438780e-02, ptr %6, align 8, !tbaa !9
  call void @llvm.lifetime.start.p0(i64 8, ptr %7) #5
  %8 = load double, ptr %5, align 8, !tbaa !9
  %9 = load double, ptr %4, align 8, !tbaa !9
  %10 = call double @pow(double noundef %9, double noundef 5.000000e+00) #5, !tbaa !11
  %11 = fdiv double %8, %10
  %12 = load double, ptr %6, align 8, !tbaa !9
  %13 = load double, ptr %4, align 8, !tbaa !9
  %14 = load double, ptr %3, align 8, !tbaa !9
  %15 = fmul double %13, %14
  %16 = fdiv double %12, %15
  %17 = call double @exp(double noundef %16) #5, !tbaa !11
  %18 = fsub double %17, 1.000000e+00
  %19 = fdiv double 1.000000e+00, %18
  %20 = fmul double %11, %19
  store double %20, ptr %7, align 8, !tbaa !9
  %21 = load double, ptr %7, align 8, !tbaa !9
  call void @llvm.lifetime.end.p0(i64 8, ptr %7) #5
  call void @llvm.lifetime.end.p0(i64 8, ptr %6) #5
  call void @llvm.lifetime.end.p0(i64 8, ptr %5) #5
  ret double %21
}