; Function Attrs: mustprogress nofree nounwind willreturn memory(write) uwtable
define dso_local double @art_blackbody_dd_value(double noundef %0, double noundef %1) local_unnamed_addr #7 {
  %3 = tail call double @pow(double noundef %1, double noundef 5.000000e+00) #12, !tbaa !4
  %4 = fdiv double 3.741770e-16, %3
  %5 = fmul double %0, %1
  %6 = fdiv double 1.438780e-02, %5
  %7 = tail call double @exp(double noundef %6) #12, !tbaa !4
  %8 = fadd double %7, -1.000000e+00
  %9 = fdiv double 1.000000e+00, %8
  %10 = fmul double %4, %9
  ret double %10
}